target datalayout = "e-m:e-p270:32:32-p271:32:32-p272:64:64-i64:64-i128:128-f80:128-n8:16:32:64-S128"
target triple = "x86_64-unknown-linux-gnu"

%"class.google::protobuf::TextFormat::Parser" = type { ptr, ptr, ptr, i8, i8, i8, i8, i8, i8, i8, i8, i32, ptr }

; Function Attrs: mustprogress nounwind uwtable
define linkonce_odr hidden noundef i32 @_ZNSt14numeric_limitsIiE3maxEv() #4 comdat align 2 {
entry:
  ret i32 2147483647
}

; Function Attrs: mustprogress nounwind uwtable
define void @_ZN6google8protobuf10TextFormat6ParserC2Ev(ptr noundef nonnull align 8 dereferenceable(48) %this) unnamed_addr #4 align 2 {
entry:
  %this.addr = alloca ptr, align 8
  store ptr %this, ptr %this.addr, align 8
  %this1 = load ptr, ptr %this.addr, align 8
  %error_collector_ = getelementptr inbounds %"class.google::protobuf::TextFormat::Parser", ptr %this1, i32 0, i32 0
  store ptr null, ptr %error_collector_, align 8
  %finder_ = getelementptr inbounds %"class.google::protobuf::TextFormat::Parser", ptr %this1, i32 0, i32 1
  store ptr null, ptr %finder_, align 8
  %parse_info_tree_ = getelementptr inbounds %"class.google::protobuf::TextFormat::Parser", ptr %this1, i32 0, i32 2
  store ptr null, ptr %parse_info_tree_, align 8
  %allow_partial_ = getelementptr inbounds %"class.google::protobuf::TextFormat::Parser", ptr %this1, i32 0, i32 3
  store i8 0, ptr %allow_partial_, align 8
  %allow_case_insensitive_field_ = getelementptr inbounds %"class.google::protobuf::TextFormat::Parser", ptr %this1, i32 0, i32 4
  store i8 0, ptr %allow_case_insensitive_field_, align 1
  %allow_unknown_field_ = getelementptr inbounds %"class.google::protobuf::TextFormat::Parser", ptr %this1, i32 0, i32 5
  store i8 0, ptr %allow_unknown_field_, align 2
  %allow_unknown_extension_ = getelementptr inbounds %"class.google::protobuf::TextFormat::Parser", ptr %this1, i32 0, i32 6
  store i8 0, ptr %allow_unknown_extension_, align 1
  %allow_unknown_enum_ = getelementptr inbounds %"class.google::protobuf::TextFormat::Parser", ptr %this1, i32 0, i32 7
  store i8 0, ptr %allow_unknown_enum_, align 4
  %allow_field_number_ = getelementptr inbounds %"class.google::protobuf::TextFormat::Parser", ptr %this1, i32 0, i32 8
  store i8 0, ptr %allow_field_number_, align 1
  %allow_relaxed_whitespace_ = getelementptr inbounds %"class.google::protobuf::TextFormat::Parser", ptr %this1, i32 0, i32 9
  store i8 0, ptr %allow_relaxed_whitespace_, align 2
  %allow_singular_overwrites_ = getelementptr inbounds %"class.google::protobuf::TextFormat::Parser", ptr %this1, i32 0, i32 10
  store i8 0, ptr %allow_singular_overwrites_, align 1
  %recursion_limit_ = getelementptr inbounds %"class.google::protobuf::TextFormat::Parser", ptr %this1, i32 0, i32 11
  %call = call noundef i32 @_ZNSt14numeric_limitsIiE3maxEv() #3
  store i32 %call, ptr %recursion_limit_, align 8
  %no_op_fields_ = getelementptr inbounds %"class.google::protobuf::TextFormat::Parser", ptr %this1, i32 0, i32 12
  store ptr null, ptr %no_op_fields_, align 8
  ret void
}