; Function Attrs: mustprogress nofree norecurse nosync nounwind willreturn memory(argmem: write) uwtable
define void @_ZN6google8protobuf10TextFormat6ParserC2Ev(ptr nocapture noundef nonnull writeonly align 8 dereferenceable(48) %this) unnamed_addr #14 align 2 {
entry:
  %recursion_limit_ = getelementptr inbounds i8, ptr %this, i64 32
  tail call void @llvm.memset.p0.i64(ptr noundef nonnull align 8 dereferenceable(32) %this, i8 0, i64 32, i1 false)
  store i32 2147483647, ptr %recursion_limit_, align 8
  %no_op_fields_ = getelementptr inbounds i8, ptr %this, i64 40
  store ptr null, ptr %no_op_fields_, align 8
  ret void
}